target datalayout = "e-m:e-p270:32:32-p271:32:32-p272:64:64-i64:64-i128:128-f80:128-n8:16:32:64-S128"
target triple = "x86_64-pc-linux-gnu"

%struct.AVCodecContext = type { ptr, i32, i32, ptr, i32, i32, ptr, ptr, ptr, i64, i32, i32, ptr, i32, %struct.AVRational, %struct.AVRational, %struct.AVRational, i32, i32, i32, i32, i32, %struct.AVRational, i32, i32, i32, i32, i32, i32, i32, i32, i32, i32, i32, ptr, ptr, i32, float, float, float, float, float, float, float, float, float, i32, i32, i32, i32, i32, i32, i32, i32, i32, i32, i32, i32, ptr, ptr, ptr, i32, i32, i32, i32, i32, i32, i32, i32, i32, i32, %struct.AVChannelLayout, i32, i32, i32, i32, i32, i32, i32, i32, ptr, i32, i32, i32, float, float, i32, i32, i32, i32, i32, ptr, i64, i64, float, float, i32, i32, ptr, ptr, i32, i32, i32, i32, i32, ptr, ptr, ptr, ptr, i32, i32, [8 x i64], i32, i32, i32, i32, i32, i32, i32, ptr, ptr, i32, i32, i32, i32, i32, i32, i32, i32, i32, i32, ptr, ptr, i32, i32, ptr, ptr, ptr, ptr, i32, i32, i64, i32, i32, i64, ptr, i64, ptr, i32, ptr, i32 }
%struct.AVRational = type { i32, i32 }
%struct.AVChannelLayout = type { i32, i32, %union.anon.0, ptr }
%union.anon.0 = type { i64 }
%struct.MPADecodeContext = type { i32, i32, i32, i32, i32, i32, i32, i32, i32, i32, [1048 x i8], i32, i32, i32, %struct.GetBitContext, %struct.GetBitContext, [2 x [1024 x i32]], [2 x i32], [8 x i8], [2 x [36 x [32 x i32]]], [2 x [576 x i32]], [2 x [2 x %struct.GranuleDef]], i32, i32, i32, ptr, %struct.MPADSPContext, ptr, ptr, i32 }
%struct.GetBitContext = type { ptr, ptr, i32, i32, i32 }
%struct.GranuleDef = type { i8, i32, i32, i32, i32, i8, i8, [3 x i32], [3 x i32], i8, i8, [3 x i32], i32, i32, i32, [40 x i8], [12 x i8], [576 x i32] }
%struct.MPADSPContext = type { ptr, ptr, ptr, ptr, ptr, ptr }
%struct.MP3On4DecodeContext = type { i32, i32, ptr, [5 x ptr] }

; Function Attrs: nounwind uwtable
define internal void @mp_flush(ptr noundef %0) #1 {
  %2 = alloca ptr, align 8
  store ptr %0, ptr %2, align 8, !tbaa !29
  %3 = load ptr, ptr %2, align 8, !tbaa !29
  %4 = getelementptr inbounds nuw %struct.MPADecodeContext, ptr %3, i32 0, i32 16
  %5 = getelementptr inbounds [2 x [1024 x i32]], ptr %4, i64 0, i64 0
  call void @llvm.memset.p0.i64(ptr align 16 %5, i8 0, i64 8192, i1 false)
  %6 = load ptr, ptr %2, align 8, !tbaa !29
  %7 = getelementptr inbounds nuw %struct.MPADecodeContext, ptr %6, i32 0, i32 20
  %8 = getelementptr inbounds [2 x [576 x i32]], ptr %7, i64 0, i64 0
  call void @llvm.memset.p0.i64(ptr align 16 %8, i8 0, i64 4608, i1 false)
  %9 = load ptr, ptr %2, align 8, !tbaa !29
  %10 = getelementptr inbounds nuw %struct.MPADecodeContext, ptr %9, i32 0, i32 11
  store i32 0, ptr %10, align 16, !tbaa !108
  %11 = load ptr, ptr %2, align 8, !tbaa !29
  %12 = getelementptr inbounds nuw %struct.MPADecodeContext, ptr %11, i32 0, i32 23
  store i32 0, ptr %12, align 4, !tbaa !231
  ret void
}

; Function Attrs: nounwind uwtable
define internal void @flush_mp3on4(ptr noundef %0) #1 {
  %2 = alloca ptr, align 8
  %3 = alloca i32, align 4
  %4 = alloca ptr, align 8
  store ptr %0, ptr %2, align 8, !tbaa !4
  call void @llvm.lifetime.start.p0(i64 4, ptr %3) #13
  call void @llvm.lifetime.start.p0(i64 8, ptr %4) #13
  %5 = load ptr, ptr %2, align 8, !tbaa !4
  %6 = getelementptr inbounds nuw %struct.AVCodecContext, ptr %5, i32 0, i32 6
  %7 = load ptr, ptr %6, align 8, !tbaa !9
  store ptr %7, ptr %4, align 8, !tbaa !72
  store i32 0, ptr %3, align 4, !tbaa !50
  br label %8

8:                                                ; preds = %21, %1
  %9 = load i32, ptr %3, align 4, !tbaa !50
  %10 = load ptr, ptr %4, align 8, !tbaa !72
  %11 = getelementptr inbounds nuw %struct.MP3On4DecodeContext, ptr %10, i32 0, i32 0
  %12 = load i32, ptr %11, align 8, !tbaa !78
  %13 = icmp slt i32 %9, %12
  br i1 %13, label %14, label %24

14:                                               ; preds = %8
  %15 = load ptr, ptr %4, align 8, !tbaa !72
  %16 = getelementptr inbounds nuw %struct.MP3On4DecodeContext, ptr %15, i32 0, i32 3
  %17 = load i32, ptr %3, align 4, !tbaa !50
  %18 = sext i32 %17 to i64
  %19 = getelementptr inbounds [5 x ptr], ptr %16, i64 0, i64 %18
  %20 = load ptr, ptr %19, align 8, !tbaa !29
  call void @mp_flush(ptr noundef %20)
  br label %21

21:                                               ; preds = %14
  %22 = load i32, ptr %3, align 4, !tbaa !50
  %23 = add nsw i32 %22, 1
  store i32 %23, ptr %3, align 4, !tbaa !50
  br label %8, !llvm.loop !95

24:                                               ; preds = %8
  call void @llvm.lifetime.end.p0(i64 8, ptr %4) #13
  call void @llvm.lifetime.end.p0(i64 4, ptr %3) #13
  ret void
}